; Function Attrs: mustprogress nofree norecurse nosync nounwind willreturn memory(argmem: read) uwtable
define dso_local { <2 x float>, <2 x float> } @_ZN6Camera13GetViewBoundsEv(ptr noundef nonnull readonly align 4 captures(none) dereferenceable(20) %0) local_unnamed_addr #3 align 2 {
  %2 = getelementptr inbounds nuw i8, ptr %0, i64 16
  %3 = load i32, ptr %2, align 4, !tbaa !11
  %4 = sitofp i32 %3 to float
  %5 = getelementptr inbounds nuw i8, ptr %0, i64 12
  %6 = load i32, ptr %5, align 4, !tbaa !4
  %7 = sitofp i32 %6 to float
  %8 = fdiv float 0.000000e+00, %7
  %9 = fsub float %4, %4
  %10 = fdiv float %9, %4
  %11 = fdiv float %7, %4
  %12 = getelementptr inbounds nuw i8, ptr %0, i64 8
  %13 = load float, ptr %12, align 4, !tbaa !13
  %14 = fmul float %13, %11
  %.sroa.04.0.copyload.i = load <2 x float>, ptr %0, align 4
  %.sroa.01.0.vec.extract.i.i = extractelement <2 x float> %.sroa.04.0.copyload.i, i64 0
  %15 = fsub float %.sroa.01.0.vec.extract.i.i, %14
  %.sroa.01.4.vec.extract.i.i = extractelement <2 x float> %.sroa.04.0.copyload.i, i64 1
  %16 = fsub float %.sroa.01.4.vec.extract.i.i, %13
  %17 = fadd float %.sroa.01.0.vec.extract.i.i, %14
  %18 = fadd float %13, %.sroa.01.4.vec.extract.i.i
  %19 = fsub float 1.000000e+00, %8
  %20 = fmul float %19, %15
  %21 = fmul float %8, %17
  %22 = fadd float %20, %21
  %.sroa.020.0.vec.insert.i = insertelement <2 x float> poison, float %22, i64 0
  %23 = fsub float 1.000000e+00, %10
  %24 = fmul float %23, %16
  %25 = fmul float %10, %18
  %26 = fadd float %24, %25
  %.sroa.020.4.vec.insert.i = insertelement <2 x float> %.sroa.020.0.vec.insert.i, float %26, i64 1
  %27 = fdiv float %7, %7
  %28 = fdiv float %4, %4
  %29 = fsub float 1.000000e+00, %27
  %30 = fmul float %29, %15
  %31 = fmul float %27, %17
  %32 = fadd float %30, %31
  %.sroa.020.0.vec.insert.i10 = insertelement <2 x float> poison, float %32, i64 0
  %33 = fsub float 1.000000e+00, %28
  %34 = fmul float %33, %16
  %35 = fmul float %28, %18
  %36 = fadd float %34, %35
  %.sroa.020.4.vec.insert.i11 = insertelement <2 x float> %.sroa.020.0.vec.insert.i10, float %36, i64 1
  %.fca.0.insert = insertvalue { <2 x float>, <2 x float> } poison, <2 x float> %.sroa.020.4.vec.insert.i, 0
  %.fca.1.insert = insertvalue { <2 x float>, <2 x float> } %.fca.0.insert, <2 x float> %.sroa.020.4.vec.insert.i11, 1
  ret { <2 x float>, <2 x float> } %.fca.1.insert
}